; ModuleID = '27/1601.c'
source_filename = "27/1601.c"
target datalayout = "e-m:e-p270:32:32-p271:32:32-p272:64:64-i64:64-f80:128-n8:16:32:64-S128"
target triple = "x86_64-pc-linux-gnu"

@.str = private unnamed_addr constant [3 x i8] c"%d\00", align 1
@.str.1 = private unnamed_addr constant [10 x i8] c"%lf%lf%lf\00", align 1
@.str.2 = private unnamed_addr constant [10 x i8] c"x1=%.5lf;\00", align 1
@.str.3 = private unnamed_addr constant [10 x i8] c"x2=%.5lf\0A\00", align 1
@.str.4 = private unnamed_addr constant [13 x i8] c"x1=x2=%.5lf\0A\00", align 1
@.str.5 = private unnamed_addr constant [17 x i8] c"x1=%.5lf+%.5lfi;\00", align 1
@.str.6 = private unnamed_addr constant [17 x i8] c"x2=%.5lf-%.5lfi\0A\00", align 1

; Function Attrs: noinline nounwind uwtable
define dso_local i32 @main() #0 {
  %1 = alloca i32, align 4
  %2 = alloca [100 x double], align 16
  %3 = alloca [100 x double], align 16
  %4 = alloca [100 x double], align 16
  %5 = alloca [100 x double], align 16
  %6 = alloca [100 x double], align 16
  %7 = alloca [100 x double], align 16
  %8 = alloca [100 x double], align 16
  %9 = alloca i32, align 4
  %10 = alloca i32, align 4
  store i32 0, i32* %1, align 4
  %11 = call i32 (i8*, ...) @__isoc99_scanf(i8* getelementptr inbounds ([3 x i8], [3 x i8]* @.str, i64 0, i64 0), i32* %9)
  store i32 1, i32* %10, align 4
  br label %12

12:                                               ; preds = %242, %0
  %13 = load i32, i32* %10, align 4
  %14 = load i32, i32* %9, align 4
  %15 = icmp sle i32 %13, %14
  br i1 %15, label %16, label %245

16:                                               ; preds = %12
  %17 = load i32, i32* %10, align 4
  %18 = sext i32 %17 to i64
  %19 = getelementptr inbounds [100 x double], [100 x double]* %2, i64 0, i64 %18
  %20 = load i32, i32* %10, align 4
  %21 = sext i32 %20 to i64
  %22 = getelementptr inbounds [100 x double], [100 x double]* %3, i64 0, i64 %21
  %23 = load i32, i32* %10, align 4
  %24 = sext i32 %23 to i64
  %25 = getelementptr inbounds [100 x double], [100 x double]* %4, i64 0, i64 %24
  %26 = call i32 (i8*, ...) @__isoc99_scanf(i8* getelementptr inbounds ([10 x i8], [10 x i8]* @.str.1, i64 0, i64 0), double* %19, double* %22, double* %25)
  %27 = load i32, i32* %10, align 4
  %28 = sext i32 %27 to i64
  %29 = getelementptr inbounds [100 x double], [100 x double]* %3, i64 0, i64 %28
  %30 = load double, double* %29, align 8
  %31 = load i32, i32* %10, align 4
  %32 = sext i32 %31 to i64
  %33 = getelementptr inbounds [100 x double], [100 x double]* %3, i64 0, i64 %32
  %34 = load double, double* %33, align 8
  %35 = fmul double %30, %34
  %36 = load i32, i32* %10, align 4
  %37 = sext i32 %36 to i64
  %38 = getelementptr inbounds [100 x double], [100 x double]* %2, i64 0, i64 %37
  %39 = load double, double* %38, align 8
  %40 = fmul double 4.000000e+00, %39
  %41 = load i32, i32* %10, align 4
  %42 = sext i32 %41 to i64
  %43 = getelementptr inbounds [100 x double], [100 x double]* %4, i64 0, i64 %42
  %44 = load double, double* %43, align 8
  %45 = fmul double %40, %44
  %46 = fsub double %35, %45
  %47 = fcmp ogt double %46, 0.000000e+00
  br i1 %47, label %48, label %131

48:                                               ; preds = %16
  %49 = load i32, i32* %10, align 4
  %50 = sext i32 %49 to i64
  %51 = getelementptr inbounds [100 x double], [100 x double]* %3, i64 0, i64 %50
  %52 = load double, double* %51, align 8
  %53 = fneg double %52
  %54 = load i32, i32* %10, align 4
  %55 = sext i32 %54 to i64
  %56 = getelementptr inbounds [100 x double], [100 x double]* %3, i64 0, i64 %55
  %57 = load double, double* %56, align 8
  %58 = load i32, i32* %10, align 4
  %59 = sext i32 %58 to i64
  %60 = getelementptr inbounds [100 x double], [100 x double]* %3, i64 0, i64 %59
  %61 = load double, double* %60, align 8
  %62 = fmul double %57, %61
  %63 = load i32, i32* %10, align 4
  %64 = sext i32 %63 to i64
  %65 = getelementptr inbounds [100 x double], [100 x double]* %2, i64 0, i64 %64
  %66 = load double, double* %65, align 8
  %67 = fmul double 4.000000e+00, %66
  %68 = load i32, i32* %10, align 4
  %69 = sext i32 %68 to i64
  %70 = getelementptr inbounds [100 x double], [100 x double]* %4, i64 0, i64 %69
  %71 = load double, double* %70, align 8
  %72 = fmul double %67, %71
  %73 = fsub double %62, %72
  %74 = call double @sqrt(double %73) #3
  %75 = fadd double %53, %74
  %76 = load i32, i32* %10, align 4
  %77 = sext i32 %76 to i64
  %78 = getelementptr inbounds [100 x double], [100 x double]* %2, i64 0, i64 %77
  %79 = load double, double* %78, align 8
  %80 = fmul double 2.000000e+00, %79
  %81 = fdiv double %75, %80
  %82 = load i32, i32* %10, align 4
  %83 = sext i32 %82 to i64
  %84 = getelementptr inbounds [100 x double], [100 x double]* %5, i64 0, i64 %83
  store double %81, double* %84, align 8
  %85 = load i32, i32* %10, align 4
  %86 = sext i32 %85 to i64
  %87 = getelementptr inbounds [100 x double], [100 x double]* %3, i64 0, i64 %86
  %88 = load double, double* %87, align 8
  %89 = fneg double %88
  %90 = load i32, i32* %10, align 4
  %91 = sext i32 %90 to i64
  %92 = getelementptr inbounds [100 x double], [100 x double]* %3, i64 0, i64 %91
  %93 = load double, double* %92, align 8
  %94 = load i32, i32* %10, align 4
  %95 = sext i32 %94 to i64
  %96 = getelementptr inbounds [100 x double], [100 x double]* %3, i64 0, i64 %95
  %97 = load double, double* %96, align 8
  %98 = fmul double %93, %97
  %99 = load i32, i32* %10, align 4
  %100 = sext i32 %99 to i64
  %101 = getelementptr inbounds [100 x double], [100 x double]* %2, i64 0, i64 %100
  %102 = load double, double* %101, align 8
  %103 = fmul double 4.000000e+00, %102
  %104 = load i32, i32* %10, align 4
  %105 = sext i32 %104 to i64
  %106 = getelementptr inbounds [100 x double], [100 x double]* %4, i64 0, i64 %105
  %107 = load double, double* %106, align 8
  %108 = fmul double %103, %107
  %109 = fsub double %98, %108
  %110 = call double @sqrt(double %109) #3
  %111 = fsub double %89, %110
  %112 = load i32, i32* %10, align 4
  %113 = sext i32 %112 to i64
  %114 = getelementptr inbounds [100 x double], [100 x double]* %2, i64 0, i64 %113
  %115 = load double, double* %114, align 8
  %116 = fmul double 2.000000e+00, %115
  %117 = fdiv double %111, %116
  %118 = load i32, i32* %10, align 4
  %119 = sext i32 %118 to i64
  %120 = getelementptr inbounds [100 x double], [100 x double]* %6, i64 0, i64 %119
  store double %117, double* %120, align 8
  %121 = load i32, i32* %10, align 4
  %122 = sext i32 %121 to i64
  %123 = getelementptr inbounds [100 x double], [100 x double]* %5, i64 0, i64 %122
  %124 = load double, double* %123, align 8
  %125 = call i32 (i8*, ...) @printf(i8* getelementptr inbounds ([10 x i8], [10 x i8]* @.str.2, i64 0, i64 0), double %124)
  %126 = load i32, i32* %10, align 4
  %127 = sext i32 %126 to i64
  %128 = getelementptr inbounds [100 x double], [100 x double]* %6, i64 0, i64 %127
  %129 = load double, double* %128, align 8
  %130 = call i32 (i8*, ...) @printf(i8* getelementptr inbounds ([10 x i8], [10 x i8]* @.str.3, i64 0, i64 0), double %129)
  br label %241

131:                                              ; preds = %16
  %132 = load i32, i32* %10, align 4
  %133 = sext i32 %132 to i64
  %134 = getelementptr inbounds [100 x double], [100 x double]* %3, i64 0, i64 %133
  %135 = load double, double* %134, align 8
  %136 = load i32, i32* %10, align 4
  %137 = sext i32 %136 to i64
  %138 = getelementptr inbounds [100 x double], [100 x double]* %3, i64 0, i64 %137
  %139 = load double, double* %138, align 8
  %140 = fmul double %135, %139
  %141 = load i32, i32* %10, align 4
  %142 = sext i32 %141 to i64
  %143 = getelementptr inbounds [100 x double], [100 x double]* %2, i64 0, i64 %142
  %144 = load double, double* %143, align 8
  %145 = fmul double 4.000000e+00, %144
  %146 = load i32, i32* %10, align 4
  %147 = sext i32 %146 to i64
  %148 = getelementptr inbounds [100 x double], [100 x double]* %4, i64 0, i64 %147
  %149 = load double, double* %148, align 8
  %150 = fmul double %145, %149
  %151 = fsub double %140, %150
  %152 = fcmp oeq double %151, 0.000000e+00
  br i1 %152, label %153, label %176

153:                                              ; preds = %131
  %154 = load i32, i32* %10, align 4
  %155 = sext i32 %154 to i64
  %156 = getelementptr inbounds [100 x double], [100 x double]* %3, i64 0, i64 %155
  %157 = load double, double* %156, align 8
  %158 = fneg double %157
  %159 = load i32, i32* %10, align 4
  %160 = sext i32 %159 to i64
  %161 = getelementptr inbounds [100 x double], [100 x double]* %2, i64 0, i64 %160
  %162 = load double, double* %161, align 8
  %163 = fmul double 2.000000e+00, %162
  %164 = fdiv double %158, %163
  %165 = load i32, i32* %10, align 4
  %166 = sext i32 %165 to i64
  %167 = getelementptr inbounds [100 x double], [100 x double]* %6, i64 0, i64 %166
  store double %164, double* %167, align 8
  %168 = load i32, i32* %10, align 4
  %169 = sext i32 %168 to i64
  %170 = getelementptr inbounds [100 x double], [100 x double]* %5, i64 0, i64 %169
  store double %164, double* %170, align 8
  %171 = load i32, i32* %10, align 4
  %172 = sext i32 %171 to i64
  %173 = getelementptr inbounds [100 x double], [100 x double]* %5, i64 0, i64 %172
  %174 = load double, double* %173, align 8
  %175 = call i32 (i8*, ...) @printf(i8* getelementptr inbounds ([13 x i8], [13 x i8]* @.str.4, i64 0, i64 0), double %174)
  br label %240

176:                                              ; preds = %131
  %177 = load i32, i32* %10, align 4
  %178 = sext i32 %177 to i64
  %179 = getelementptr inbounds [100 x double], [100 x double]* %3, i64 0, i64 %178
  %180 = load double, double* %179, align 8
  %181 = fneg double %180
  %182 = load i32, i32* %10, align 4
  %183 = sext i32 %182 to i64
  %184 = getelementptr inbounds [100 x double], [100 x double]* %2, i64 0, i64 %183
  %185 = load double, double* %184, align 8
  %186 = fmul double 2.000000e+00, %185
  %187 = fdiv double %181, %186
  %188 = load i32, i32* %10, align 4
  %189 = sext i32 %188 to i64
  %190 = getelementptr inbounds [100 x double], [100 x double]* %7, i64 0, i64 %189
  store double %187, double* %190, align 8
  %191 = load i32, i32* %10, align 4
  %192 = sext i32 %191 to i64
  %193 = getelementptr inbounds [100 x double], [100 x double]* %3, i64 0, i64 %192
  %194 = load double, double* %193, align 8
  %195 = fneg double %194
  %196 = load i32, i32* %10, align 4
  %197 = sext i32 %196 to i64
  %198 = getelementptr inbounds [100 x double], [100 x double]* %3, i64 0, i64 %197
  %199 = load double, double* %198, align 8
  %200 = fmul double %195, %199
  %201 = load i32, i32* %10, align 4
  %202 = sext i32 %201 to i64
  %203 = getelementptr inbounds [100 x double], [100 x double]* %2, i64 0, i64 %202
  %204 = load double, double* %203, align 8
  %205 = fmul double 4.000000e+00, %204
  %206 = load i32, i32* %10, align 4
  %207 = sext i32 %206 to i64
  %208 = getelementptr inbounds [100 x double], [100 x double]* %4, i64 0, i64 %207
  %209 = load double, double* %208, align 8
  %210 = fmul double %205, %209
  %211 = fadd double %200, %210
  %212 = call double @sqrt(double %211) #3
  %213 = load i32, i32* %10, align 4
  %214 = sext i32 %213 to i64
  %215 = getelementptr inbounds [100 x double], [100 x double]* %2, i64 0, i64 %214
  %216 = load double, double* %215, align 8
  %217 = fmul double 2.000000e+00, %216
  %218 = fdiv double %212, %217
  %219 = load i32, i32* %10, align 4
  %220 = sext i32 %219 to i64
  %221 = getelementptr inbounds [100 x double], [100 x double]* %8, i64 0, i64 %220
  store double %218, double* %221, align 8
  %222 = load i32, i32* %10, align 4
  %223 = sext i32 %222 to i64
  %224 = getelementptr inbounds [100 x double], [100 x double]* %7, i64 0, i64 %223
  %225 = load double, double* %224, align 8
  %226 = load i32, i32* %10, align 4
  %227 = sext i32 %226 to i64
  %228 = getelementptr inbounds [100 x double], [100 x double]* %8, i64 0, i64 %227
  %229 = load double, double* %228, align 8
  %230 = call i32 (i8*, ...) @printf(i8* getelementptr inbounds ([17 x i8], [17 x i8]* @.str.5, i64 0, i64 0), double %225, double %229)
  %231 = load i32, i32* %10, align 4
  %232 = sext i32 %231 to i64
  %233 = getelementptr inbounds [100 x double], [100 x double]* %7, i64 0, i64 %232
  %234 = load double, double* %233, align 8
  %235 = load i32, i32* %10, align 4
  %236 = sext i32 %235 to i64
  %237 = getelementptr inbounds [100 x double], [100 x double]* %8, i64 0, i64 %236
  %238 = load double, double* %237, align 8
  %239 = call i32 (i8*, ...) @printf(i8* getelementptr inbounds ([17 x i8], [17 x i8]* @.str.6, i64 0, i64 0), double %234, double %238)
  br label %240

240:                                              ; preds = %176, %153
  br label %241

241:                                              ; preds = %240, %48
  br label %242

242:                                              ; preds = %241
  %243 = load i32, i32* %10, align 4
  %244 = add nsw i32 %243, 1
  store i32 %244, i32* %10, align 4
  br label %12

245:                                              ; preds = %12
  ret i32 0
}

declare dso_local i32 @__isoc99_scanf(i8*, ...) #1

; Function Attrs: nounwind
declare dso_local double @sqrt(double) #2

declare dso_local i32 @printf(i8*, ...) #1


!llvm.module.flags = !{!0}
!llvm.ident = !{!1}

!0 = !{i32 1, !"wchar_size", i32 4}
!1 = !{!"clang version 10.0.0-4ubuntu1 "}
