; ModuleID = 'source-C-CXX/26/1601.c'
source_filename = "source-C-CXX/26/1601.c"
target datalayout = "e-m:e-p270:32:32-p271:32:32-p272:64:64-i64:64-f80:128-n8:16:32:64-S128"
target triple = "x86_64-pc-linux-gnu"

@.str = private unnamed_addr constant [3 x i8] c"%d\00", align 1
@.str.1 = private unnamed_addr constant [10 x i8] c"%lf%lf%lf\00", align 1
@.str.2 = private unnamed_addr constant [10 x i8] c"x1=%.5lf;\00", align 1
@.str.3 = private unnamed_addr constant [10 x i8] c"x2=%.5lf\0A\00", align 1
@.str.4 = private unnamed_addr constant [13 x i8] c"x1=x2=%.5lf\0A\00", align 1
@.str.5 = private unnamed_addr constant [17 x i8] c"x1=%.5lf+%.5lfi;\00", align 1
@.str.6 = private unnamed_addr constant [17 x i8] c"x2=%.5lf-%.5lfi\0A\00", align 1

; Function Attrs: nofree nounwind sspstrong uwtable
define dso_local i32 @main() local_unnamed_addr #0 {
  %1 = alloca [100 x double], align 16
  %2 = alloca [100 x double], align 16
  %3 = alloca [100 x double], align 16
  %4 = alloca i32, align 4
  %5 = bitcast [100 x double]* %1 to i8*
  call void @llvm.lifetime.start.p0i8(i64 800, i8* nonnull %5) #4
  %6 = bitcast [100 x double]* %2 to i8*
  call void @llvm.lifetime.start.p0i8(i64 800, i8* nonnull %6) #4
  %7 = bitcast [100 x double]* %3 to i8*
  call void @llvm.lifetime.start.p0i8(i64 800, i8* nonnull %7) #4
  %8 = bitcast i32* %4 to i8*
  call void @llvm.lifetime.start.p0i8(i64 4, i8* nonnull %8) #4
  %9 = call i32 (i8*, ...) @__isoc99_scanf(i8* getelementptr inbounds ([3 x i8], [3 x i8]* @.str, i64 0, i64 0), i32* nonnull %4)
  %10 = load i32, i32* %4, align 4, !tbaa !5
  %11 = icmp slt i32 %10, 1
  br i1 %11, label %66, label %12

12:                                               ; preds = %0, %61
  %13 = phi i64 [ %62, %61 ], [ 1, %0 ]
  %14 = getelementptr inbounds [100 x double], [100 x double]* %1, i64 0, i64 %13
  %15 = getelementptr inbounds [100 x double], [100 x double]* %2, i64 0, i64 %13
  %16 = getelementptr inbounds [100 x double], [100 x double]* %3, i64 0, i64 %13
  %17 = call i32 (i8*, ...) @__isoc99_scanf(i8* getelementptr inbounds ([10 x i8], [10 x i8]* @.str.1, i64 0, i64 0), double* nonnull %14, double* nonnull %15, double* nonnull %16)
  %18 = load double, double* %15, align 8, !tbaa !9
  %19 = fmul double %18, %18
  %20 = load double, double* %14, align 8, !tbaa !9
  %21 = fmul double %20, 4.000000e+00
  %22 = load double, double* %16, align 8, !tbaa !9
  %23 = fmul double %21, %22
  %24 = fsub double %19, %23
  %25 = fcmp ogt double %24, 0.000000e+00
  br i1 %25, label %26, label %46

26:                                               ; preds = %12
  %27 = call double @sqrt(double %24) #4
  %28 = fsub double %27, %18
  %29 = load double, double* %14, align 8, !tbaa !9
  %30 = fmul double %29, 2.000000e+00
  %31 = fdiv double %28, %30
  %32 = load double, double* %15, align 8, !tbaa !9
  %33 = fneg double %32
  %34 = fmul double %32, %32
  %35 = fmul double %29, 4.000000e+00
  %36 = load double, double* %16, align 8, !tbaa !9
  %37 = fmul double %35, %36
  %38 = fsub double %34, %37
  %39 = call double @sqrt(double %38) #4
  %40 = fsub double %33, %39
  %41 = load double, double* %14, align 8, !tbaa !9
  %42 = fmul double %41, 2.000000e+00
  %43 = fdiv double %40, %42
  %44 = call i32 (i8*, ...) @printf(i8* nonnull dereferenceable(1) getelementptr inbounds ([10 x i8], [10 x i8]* @.str.2, i64 0, i64 0), double %31)
  %45 = call i32 (i8*, ...) @printf(i8* nonnull dereferenceable(1) getelementptr inbounds ([10 x i8], [10 x i8]* @.str.3, i64 0, i64 0), double %43)
  br label %61

46:                                               ; preds = %12
  %47 = fcmp oeq double %24, 0.000000e+00
  %48 = fneg double %18
  %49 = fmul double %20, 2.000000e+00
  %50 = fdiv double %48, %49
  br i1 %47, label %51, label %53

51:                                               ; preds = %46
  %52 = call i32 (i8*, ...) @printf(i8* nonnull dereferenceable(1) getelementptr inbounds ([13 x i8], [13 x i8]* @.str.4, i64 0, i64 0), double %50)
  br label %61

53:                                               ; preds = %46
  %54 = fsub double %23, %19
  %55 = call double @sqrt(double %54) #4
  %56 = load double, double* %14, align 8, !tbaa !9
  %57 = fmul double %56, 2.000000e+00
  %58 = fdiv double %55, %57
  %59 = call i32 (i8*, ...) @printf(i8* nonnull dereferenceable(1) getelementptr inbounds ([17 x i8], [17 x i8]* @.str.5, i64 0, i64 0), double %50, double %58)
  %60 = call i32 (i8*, ...) @printf(i8* nonnull dereferenceable(1) getelementptr inbounds ([17 x i8], [17 x i8]* @.str.6, i64 0, i64 0), double %50, double %58)
  br label %61

61:                                               ; preds = %26, %53, %51
  %62 = add nuw nsw i64 %13, 1
  %63 = load i32, i32* %4, align 4, !tbaa !5
  %64 = sext i32 %63 to i64
  %65 = icmp slt i64 %13, %64
  br i1 %65, label %12, label %66, !llvm.loop !11

66:                                               ; preds = %61, %0
  call void @llvm.lifetime.end.p0i8(i64 4, i8* nonnull %8) #4
  call void @llvm.lifetime.end.p0i8(i64 800, i8* nonnull %7) #4
  call void @llvm.lifetime.end.p0i8(i64 800, i8* nonnull %6) #4
  call void @llvm.lifetime.end.p0i8(i64 800, i8* nonnull %5) #4
  ret i32 0
}

; Function Attrs: argmemonly mustprogress nofree nosync nounwind willreturn
declare void @llvm.lifetime.start.p0i8(i64 immarg, i8* nocapture) #1

; Function Attrs: nofree nounwind
declare noundef i32 @__isoc99_scanf(i8* nocapture noundef readonly, ...) local_unnamed_addr #2

; Function Attrs: mustprogress nofree nounwind willreturn
declare double @sqrt(double) local_unnamed_addr #3

; Function Attrs: nofree nounwind
declare noundef i32 @printf(i8* nocapture noundef readonly, ...) local_unnamed_addr #2

; Function Attrs: argmemonly mustprogress nofree nosync nounwind willreturn
declare void @llvm.lifetime.end.p0i8(i64 immarg, i8* nocapture) #1


!llvm.module.flags = !{!0, !1, !2, !3}
!llvm.ident = !{!4}

!0 = !{i32 1, !"wchar_size", i32 4}
!1 = !{i32 7, !"PIC Level", i32 2}
!2 = !{i32 7, !"PIE Level", i32 2}
!3 = !{i32 7, !"uwtable", i32 1}
!4 = !{!"clang version 13.0.0"}
!5 = !{!6, !6, i64 0}
!6 = !{!"int", !7, i64 0}
!7 = !{!"omnipotent char", !8, i64 0}
!8 = !{!"Simple C/C++ TBAA"}
!9 = !{!10, !10, i64 0}
!10 = !{!"double", !7, i64 0}
!11 = distinct !{!11, !12}
!12 = !{!"llvm.loop.mustprogress"}
